; Function Attrs: mustprogress uwtable
define void @_ZNK32pxrInternal_v0_24__pxrReserved__9GfFrustum16ComputeViewFrameEPNS_7GfVec3dES2_S2_(ptr noundef nonnull align 8 dereferenceable(128) %0, ptr nocapture noundef writeonly %1, ptr nocapture noundef %2, ptr nocapture noundef %3) local_unnamed_addr #0 align 2 {
  %5 = alloca %"class.pxrInternal_v0_24__pxrReserved__::GfVec3d", align 8
  %6 = alloca %"class.pxrInternal_v0_24__pxrReserved__::GfVec3d", align 8
  %7 = alloca %"class.pxrInternal_v0_24__pxrReserved__::GfVec3d", align 8
  %8 = alloca %"class.pxrInternal_v0_24__pxrReserved__::GfVec3d", align 8
  call void @llvm.lifetime.start.p0(i64 24, ptr nonnull %6)
  %9 = getelementptr inbounds nuw i8, ptr %0, i64 24
  call void @llvm.memset.p0.i64(ptr noundef nonnull align 8 dereferenceable(24) %6, i8 0, i64 24, i1 false), !alias.scope !62, !noalias !65
  %10 = getelementptr inbounds i8, ptr %6, i64 8
  store double 1.000000e+00, ptr %10, align 8, !alias.scope !62, !noalias !65
  call void @_ZNK32pxrInternal_v0_24__pxrReserved__10GfRotation12TransformDirERKNS_7GfVec3dE(ptr dead_on_unwind nonnull writable sret(%"class.pxrInternal_v0_24__pxrReserved__::GfVec3d") align 8 %7, ptr noundef nonnull align 8 dereferenceable(32) %9, ptr noundef nonnull align 8 dereferenceable(24) %6)
  call void @llvm.lifetime.end.p0(i64 24, ptr nonnull %6)
  call void @llvm.memcpy.p0.p0.i64(ptr noundef nonnull align 8 dereferenceable(24) %2, ptr noundef nonnull align 8 dereferenceable(24) %7, i64 24, i1 false)
  call void @llvm.lifetime.start.p0(i64 24, ptr nonnull %5)
  store double -0.000000e+00, ptr %5, align 8, !alias.scope !68, !noalias !71
  %11 = getelementptr inbounds i8, ptr %5, i64 8
  store double -0.000000e+00, ptr %11, align 8, !alias.scope !68, !noalias !71
  %12 = getelementptr inbounds i8, ptr %5, i64 16
  store double -1.000000e+00, ptr %12, align 8, !alias.scope !68, !noalias !71
  call void @_ZNK32pxrInternal_v0_24__pxrReserved__10GfRotation12TransformDirERKNS_7GfVec3dE(ptr dead_on_unwind nonnull writable sret(%"class.pxrInternal_v0_24__pxrReserved__::GfVec3d") align 8 %8, ptr noundef nonnull align 8 dereferenceable(32) %9, ptr noundef nonnull align 8 dereferenceable(24) %5)
  call void @llvm.lifetime.end.p0(i64 24, ptr nonnull %5)
  call void @llvm.memcpy.p0.p0.i64(ptr noundef nonnull align 8 dereferenceable(24) %3, ptr noundef nonnull align 8 dereferenceable(24) %8, i64 24, i1 false)
  %13 = getelementptr inbounds i8, ptr %3, i64 8
  %14 = load double, ptr %13, align 8, !noalias !74
  %15 = getelementptr inbounds i8, ptr %2, i64 16
  %16 = load double, ptr %15, align 8, !noalias !74
  %17 = getelementptr inbounds i8, ptr %3, i64 16
  %18 = load double, ptr %17, align 8, !noalias !74
  %19 = getelementptr inbounds i8, ptr %2, i64 8
  %20 = load double, ptr %19, align 8, !noalias !74
  %21 = fneg double %20
  %22 = fmul double %18, %21
  %23 = call double @llvm.fmuladd.f64(double %14, double %16, double %22)
  %24 = load double, ptr %2, align 8, !noalias !74
  %25 = load double, ptr %3, align 8, !noalias !74
  %26 = fneg double %16
  %27 = fmul double %25, %26
  %28 = call double @llvm.fmuladd.f64(double %18, double %24, double %27)
  %29 = fneg double %24
  %30 = fmul double %14, %29
  %31 = call double @llvm.fmuladd.f64(double %25, double %20, double %30)
  store double %23, ptr %1, align 8
  %.sroa.2.0..sroa_idx = getelementptr inbounds i8, ptr %1, i64 8
  store double %28, ptr %.sroa.2.0..sroa_idx, align 8
  %.sroa.3.0..sroa_idx = getelementptr inbounds i8, ptr %1, i64 16
  store double %31, ptr %.sroa.3.0..sroa_idx, align 8
  ret void
}